; Function Attrs: mustprogress ssp uwtable
define void @_ZN6open3d13visualization29VisualizerWithCustomAnimation19MouseButtonCallbackEP10GLFWwindowiii(ptr noundef nonnull align 8 dereferenceable(656) %0, ptr noundef %1, i32 noundef %2, i32 noundef %3, i32 noundef %4) unnamed_addr #2 align 2 {
  %6 = getelementptr inbounds nuw i8, ptr %0, i64 192
  %7 = load ptr, ptr %6, align 8, !tbaa !71
  %8 = getelementptr inbounds nuw i8, ptr %7, i64 728
  %9 = load i32, ptr %8, align 8, !tbaa !107
  %.off = add i32 %9, -1
  %switch = icmp ult i32 %.off, 2
  br i1 %switch, label %11, label %10

10:                                               ; preds = %5
  tail call void @_ZN6open3d13visualization10Visualizer19MouseButtonCallbackEP10GLFWwindowiii(ptr noundef nonnull align 8 dereferenceable(456) %0, ptr noundef %1, i32 noundef %2, i32 noundef %3, i32 noundef %4)
  br label %11

11:                                               ; preds = %5, %10
  ret void
}